; Function Attrs: null_pointer_is_valid sspstrong uwtable
define internal void @slice(ptr noundef readonly captures(none) %0, ptr noundef %1, i32 noundef %2, i32 noundef %3) #0 {
  %5 = getelementptr inbounds nuw i8, ptr %0, i64 8
  %6 = load ptr, ptr %5, align 8
  %7 = tail call ptr @g_bytes_get_data(ptr noundef %6, ptr noundef null)
  %8 = zext i32 %2 to i64
  %9 = getelementptr i8, ptr %7, i64 %8
  %10 = tail call ptr @g_byte_array_append(ptr noundef %1, ptr noundef %9, i32 noundef %3)
  ret void
}